target datalayout = "e-m:e-p270:32:32-p271:32:32-p272:64:64-i64:64-i128:128-f80:128-n8:16:32:64-S128"
target triple = "x86_64-pc-linux-gnu"

%struct.expert_field = type { i32, i32 }
%struct._packet_info = type { ptr, ptr, i32, i32, %struct.nstime_t, %struct.nstime_t, %struct.nstime_t, i8, ptr, ptr, ptr, ptr, %struct._address, %struct._address, %struct._address, %struct._address, %struct._address, %struct._address, i32, ptr, i8, [3 x i8], %struct.anon, i32, i32, i32, i32, ptr, i8, ptr, ptr, i16, i16, i32, i32, i16, i32, i32, ptr, ptr, ptr, i8, i8, i16, i16, i16, i32, i16, i16, ptr, ptr, ptr, ptr, ptr, i32, i32 }
%struct.nstime_t = type { i64, i32 }
%struct._address = type { i32, i32, ptr, ptr }
%struct.anon = type { i8, [3 x i8] }

@hf_nas_eps_tsc = internal global i32 0, align 4
@hf_nas_eps_emm_nas_key_set_id = internal global i32 0, align 4
@ei_nas_eps_extraneous_data = internal global %struct.expert_field zeroinitializer, align 4
@hf_nas_eps_emm_spare_half_octet = internal global i32 0, align 4
@ei_nas_eps_missing_mandatory_elemen = internal global %struct.expert_field zeroinitializer, align 4
@.str.959 = private unnamed_addr constant [62 x i8] c"Missing Mandatory element %s%s, rest of dissection is suspect\00", align 1
@.str.986 = private unnamed_addr constant [3 x i8] c"%s\00", align 1
@.str.1003 = private unnamed_addr constant [6 x i8] c" ASME\00", align 1
@.str.1013 = private unnamed_addr constant [36 x i8] c" - Selected NAS security algorithms\00", align 1
@.str.1014 = private unnamed_addr constant [37 x i8] c" - Replayed UE security capabilities\00", align 1
@.str.1015 = private unnamed_addr constant [20 x i8] c" - Replayed NonceUE\00", align 1
@.str.1016 = private unnamed_addr constant [12 x i8] c" - NonceMME\00", align 1
@.str.1017 = private unnamed_addr constant [46 x i8] c" - Replayed UE additional security capability\00", align 1
@.str.1018 = private unnamed_addr constant [42 x i8] c" - UE coarse location information request\00", align 1

; Function Attrs: null_pointer_is_valid sspstrong uwtable
define internal void @de_emm_nas_key_set_id_bits(ptr noundef %0, ptr noundef %1, i32 noundef %2, ptr noundef %3) #1 {
  %5 = alloca ptr, align 8
  %6 = alloca ptr, align 8
  %7 = alloca i32, align 4
  %8 = alloca ptr, align 8
  %9 = alloca ptr, align 8
  store ptr %0, ptr %5, align 8
  store ptr %1, ptr %6, align 8
  store i32 %2, ptr %7, align 4
  store ptr %3, ptr %8, align 8
  call void @llvm.lifetime.start.p0(i64 8, ptr %9) #10
  %10 = load ptr, ptr %6, align 8
  %11 = load i32, ptr @hf_nas_eps_tsc, align 4
  %12 = load ptr, ptr %5, align 8
  %13 = load i32, ptr %7, align 4
  %14 = call ptr @proto_tree_add_bits_item(ptr noundef %10, i32 noundef %11, ptr noundef %12, i32 noundef %13, i32 noundef 1, i32 noundef 0)
  %15 = load i32, ptr %7, align 4
  %16 = add i32 %15, 1
  store i32 %16, ptr %7, align 4
  %17 = load ptr, ptr %6, align 8
  %18 = load i32, ptr @hf_nas_eps_emm_nas_key_set_id, align 4
  %19 = load ptr, ptr %5, align 8
  %20 = load i32, ptr %7, align 4
  %21 = call ptr @proto_tree_add_bits_item(ptr noundef %17, i32 noundef %18, ptr noundef %19, i32 noundef %20, i32 noundef 3, i32 noundef 0)
  store ptr %21, ptr %9, align 8
  %22 = load ptr, ptr %8, align 8
  %23 = icmp ne ptr %22, null
  br i1 %23, label %24, label %27

24:                                               ; preds = %4
  %25 = load ptr, ptr %9, align 8
  %26 = load ptr, ptr %8, align 8
  call void (ptr, ptr, ...) @proto_item_append_text(ptr noundef %25, ptr noundef @.str.986, ptr noundef %26)
  br label %27

27:                                               ; preds = %24, %4
  call void @llvm.lifetime.end.p0(i64 8, ptr %9) #10
  ret void
}

; Function Attrs: null_pointer_is_valid sspstrong uwtable
define internal void @nas_emm_sec_mode_cmd(ptr noundef %0, ptr noundef %1, ptr noundef %2, i32 noundef %3, i32 noundef %4) #1 {
  %6 = alloca ptr, align 8
  %7 = alloca ptr, align 8
  %8 = alloca ptr, align 8
  %9 = alloca i32, align 4
  %10 = alloca i32, align 4
  %11 = alloca i32, align 4
  %12 = alloca i32, align 4
  %13 = alloca i32, align 4
  %14 = alloca i32, align 4
  %15 = alloca i32, align 4
  store ptr %0, ptr %6, align 8
  store ptr %1, ptr %7, align 8
  store ptr %2, ptr %8, align 8
  store i32 %3, ptr %9, align 4
  store i32 %4, ptr %10, align 4
  call void @llvm.lifetime.start.p0(i64 4, ptr %11) #10
  call void @llvm.lifetime.start.p0(i64 4, ptr %12) #10
  call void @llvm.lifetime.start.p0(i64 4, ptr %13) #10
  call void @llvm.lifetime.start.p0(i64 4, ptr %14) #10
  %16 = load i32, ptr %9, align 4
  store i32 %16, ptr %11, align 4
  %17 = load i32, ptr %10, align 4
  store i32 %17, ptr %14, align 4
  %18 = load ptr, ptr %8, align 8
  %19 = getelementptr inbounds nuw %struct._packet_info, ptr %18, i32 0, i32 46
  store i32 1, ptr %19, align 8
  %20 = load i32, ptr %14, align 4
  %21 = icmp sgt i32 %20, 0
  br i1 %21, label %22, label %37

22:                                               ; preds = %5
  %23 = load ptr, ptr %6, align 8
  %24 = load ptr, ptr %7, align 8
  %25 = load ptr, ptr %8, align 8
  %26 = load i32, ptr %11, align 4
  %27 = call zeroext i16 @elem_v(ptr noundef %23, ptr noundef %24, ptr noundef %25, i32 noundef 10, i32 noundef 29, i32 noundef %26, ptr noundef @.str.1013)
  %28 = zext i16 %27 to i32
  store i32 %28, ptr %13, align 4
  %29 = icmp ugt i32 %28, 0
  br i1 %29, label %30, label %37

30:                                               ; preds = %22
  %31 = load i32, ptr %13, align 4
  %32 = load i32, ptr %11, align 4
  %33 = add i32 %32, %31
  store i32 %33, ptr %11, align 4
  %34 = load i32, ptr %13, align 4
  %35 = load i32, ptr %14, align 4
  %36 = sub i32 %35, %34
  store i32 %36, ptr %14, align 4
  br label %44

37:                                               ; preds = %22, %5
  %38 = load ptr, ptr %7, align 8
  %39 = load ptr, ptr %8, align 8
  %40 = load ptr, ptr %6, align 8
  %41 = load i32, ptr %11, align 4
  %42 = call ptr @get_gsm_a_msg_string(i32 noundef 10, i32 noundef 29)
  %43 = call ptr (ptr, ptr, ptr, ptr, i32, i32, ptr, ...) @proto_tree_add_expert_format(ptr noundef %38, ptr noundef %39, ptr noundef @ei_nas_eps_missing_mandatory_elemen, ptr noundef %40, i32 noundef %41, i32 noundef 0, ptr noundef @.str.959, ptr noundef %42, ptr noundef @.str.1013)
  br label %44

44:                                               ; preds = %37, %30
  %45 = load i32, ptr %11, align 4
  %46 = shl i32 %45, 3
  store i32 %46, ptr %12, align 4
  %47 = load ptr, ptr %7, align 8
  %48 = load i32, ptr @hf_nas_eps_emm_spare_half_octet, align 4
  %49 = load ptr, ptr %6, align 8
  %50 = load i32, ptr %12, align 4
  %51 = call ptr @proto_tree_add_bits_item(ptr noundef %47, i32 noundef %48, ptr noundef %49, i32 noundef %50, i32 noundef 4, i32 noundef 0)
  %52 = load i32, ptr %12, align 4
  %53 = add i32 %52, 4
  store i32 %53, ptr %12, align 4
  %54 = load ptr, ptr %6, align 8
  %55 = load ptr, ptr %7, align 8
  %56 = load i32, ptr %12, align 4
  call void @de_emm_nas_key_set_id_bits(ptr noundef %54, ptr noundef %55, i32 noundef %56, ptr noundef @.str.1003)
  %57 = load i32, ptr %14, align 4
  %58 = add i32 %57, -1
  store i32 %58, ptr %14, align 4
  %59 = load i32, ptr %11, align 4
  %60 = add i32 %59, 1
  store i32 %60, ptr %11, align 4
  %61 = load i32, ptr %14, align 4
  %62 = icmp sgt i32 %61, 0
  br i1 %62, label %63, label %79

63:                                               ; preds = %44
  %64 = load ptr, ptr %6, align 8
  %65 = load ptr, ptr %7, align 8
  %66 = load ptr, ptr %8, align 8
  %67 = load i32, ptr %11, align 4
  %68 = load i32, ptr %14, align 4
  %69 = call zeroext i16 @elem_lv(ptr noundef %64, ptr noundef %65, ptr noundef %66, i32 noundef 10, i32 noundef 44, i32 noundef %67, i32 noundef %68, ptr noundef @.str.1014)
  %70 = zext i16 %69 to i32
  store i32 %70, ptr %13, align 4
  %71 = icmp ugt i32 %70, 0
  br i1 %71, label %72, label %79

72:                                               ; preds = %63
  %73 = load i32, ptr %13, align 4
  %74 = load i32, ptr %11, align 4
  %75 = add i32 %74, %73
  store i32 %75, ptr %11, align 4
  %76 = load i32, ptr %13, align 4
  %77 = load i32, ptr %14, align 4
  %78 = sub i32 %77, %76
  store i32 %78, ptr %14, align 4
  br label %86

79:                                               ; preds = %63, %44
  %80 = load ptr, ptr %7, align 8
  %81 = load ptr, ptr %8, align 8
  %82 = load ptr, ptr %6, align 8
  %83 = load i32, ptr %11, align 4
  %84 = call ptr @get_gsm_a_msg_string(i32 noundef 10, i32 noundef 44)
  %85 = call ptr (ptr, ptr, ptr, ptr, i32, i32, ptr, ...) @proto_tree_add_expert_format(ptr noundef %80, ptr noundef %81, ptr noundef @ei_nas_eps_missing_mandatory_elemen, ptr noundef %82, i32 noundef %83, i32 noundef 0, ptr noundef @.str.959, ptr noundef %84, ptr noundef @.str.1014)
  br label %86

86:                                               ; preds = %79, %72
  %87 = load i32, ptr %14, align 4
  %88 = icmp sle i32 %87, 0
  br i1 %88, label %89, label %90

89:                                               ; preds = %86
  store i32 1, ptr %15, align 4
  br label %238

90:                                               ; preds = %86
  %91 = load ptr, ptr %6, align 8
  %92 = load ptr, ptr %7, align 8
  %93 = load ptr, ptr %8, align 8
  %94 = load i32, ptr %11, align 4
  %95 = call zeroext i16 @elem_tv_short(ptr noundef %91, ptr noundef %92, ptr noundef %93, i8 noundef zeroext -64, i32 noundef 10, i32 noundef 23, i32 noundef %94, ptr noundef null)
  %96 = zext i16 %95 to i32
  store i32 %96, ptr %13, align 4
  %97 = icmp ugt i32 %96, 0
  br i1 %97, label %98, label %105

98:                                               ; preds = %90
  %99 = load i32, ptr %13, align 4
  %100 = load i32, ptr %11, align 4
  %101 = add i32 %100, %99
  store i32 %101, ptr %11, align 4
  %102 = load i32, ptr %13, align 4
  %103 = load i32, ptr %14, align 4
  %104 = sub i32 %103, %102
  store i32 %104, ptr %14, align 4
  br label %105

105:                                              ; preds = %98, %90
  %106 = load i32, ptr %14, align 4
  %107 = icmp sle i32 %106, 0
  br i1 %107, label %108, label %109

108:                                              ; preds = %105
  store i32 1, ptr %15, align 4
  br label %238

109:                                              ; preds = %105
  %110 = load ptr, ptr %6, align 8
  %111 = load ptr, ptr %7, align 8
  %112 = load ptr, ptr %8, align 8
  %113 = load i32, ptr %11, align 4
  %114 = call zeroext i16 @elem_tv(ptr noundef %110, ptr noundef %111, ptr noundef %112, i8 noundef zeroext 85, i32 noundef 10, i32 noundef 31, i32 noundef %113, ptr noundef @.str.1015)
  %115 = zext i16 %114 to i32
  store i32 %115, ptr %13, align 4
  %116 = icmp ugt i32 %115, 0
  br i1 %116, label %117, label %124

117:                                              ; preds = %109
  %118 = load i32, ptr %13, align 4
  %119 = load i32, ptr %11, align 4
  %120 = add i32 %119, %118
  store i32 %120, ptr %11, align 4
  %121 = load i32, ptr %13, align 4
  %122 = load i32, ptr %14, align 4
  %123 = sub i32 %122, %121
  store i32 %123, ptr %14, align 4
  br label %124

124:                                              ; preds = %117, %109
  %125 = load i32, ptr %14, align 4
  %126 = icmp sle i32 %125, 0
  br i1 %126, label %127, label %128

127:                                              ; preds = %124
  store i32 1, ptr %15, align 4
  br label %238

128:                                              ; preds = %124
  %129 = load ptr, ptr %6, align 8
  %130 = load ptr, ptr %7, align 8
  %131 = load ptr, ptr %8, align 8
  %132 = load i32, ptr %11, align 4
  %133 = call zeroext i16 @elem_tv(ptr noundef %129, ptr noundef %130, ptr noundef %131, i8 noundef zeroext 86, i32 noundef 10, i32 noundef 31, i32 noundef %132, ptr noundef @.str.1016)
  %134 = zext i16 %133 to i32
  store i32 %134, ptr %13, align 4
  %135 = icmp ugt i32 %134, 0
  br i1 %135, label %136, label %143

136:                                              ; preds = %128
  %137 = load i32, ptr %13, align 4
  %138 = load i32, ptr %11, align 4
  %139 = add i32 %138, %137
  store i32 %139, ptr %11, align 4
  %140 = load i32, ptr %13, align 4
  %141 = load i32, ptr %14, align 4
  %142 = sub i32 %141, %140
  store i32 %142, ptr %14, align 4
  br label %143

143:                                              ; preds = %136, %128
  %144 = load i32, ptr %14, align 4
  %145 = icmp sle i32 %144, 0
  br i1 %145, label %146, label %147

146:                                              ; preds = %143
  store i32 1, ptr %15, align 4
  br label %238

147:                                              ; preds = %143
  %148 = load ptr, ptr %6, align 8
  %149 = load ptr, ptr %7, align 8
  %150 = load ptr, ptr %8, align 8
  %151 = load i32, ptr %11, align 4
  %152 = load i32, ptr %14, align 4
  %153 = call zeroext i16 @elem_tlv(ptr noundef %148, ptr noundef %149, ptr noundef %150, i8 noundef zeroext 79, i32 noundef 10, i32 noundef 59, i32 noundef %151, i32 noundef %152, ptr noundef null)
  %154 = zext i16 %153 to i32
  store i32 %154, ptr %13, align 4
  %155 = icmp ugt i32 %154, 0
  br i1 %155, label %156, label %163

156:                                              ; preds = %147
  %157 = load i32, ptr %13, align 4
  %158 = load i32, ptr %11, align 4
  %159 = add i32 %158, %157
  store i32 %159, ptr %11, align 4
  %160 = load i32, ptr %13, align 4
  %161 = load i32, ptr %14, align 4
  %162 = sub i32 %161, %160
  store i32 %162, ptr %14, align 4
  br label %163

163:                                              ; preds = %156, %147
  %164 = load i32, ptr %14, align 4
  %165 = icmp sle i32 %164, 0
  br i1 %165, label %166, label %167

166:                                              ; preds = %163
  store i32 1, ptr %15, align 4
  br label %238

167:                                              ; preds = %163
  %168 = load ptr, ptr %6, align 8
  %169 = load ptr, ptr %7, align 8
  %170 = load ptr, ptr %8, align 8
  %171 = load i32, ptr %11, align 4
  %172 = load i32, ptr %14, align 4
  %173 = call zeroext i16 @elem_tlv(ptr noundef %168, ptr noundef %169, ptr noundef %170, i8 noundef zeroext 111, i32 noundef 10, i32 noundef 62, i32 noundef %171, i32 noundef %172, ptr noundef @.str.1017)
  %174 = zext i16 %173 to i32
  store i32 %174, ptr %13, align 4
  %175 = icmp ugt i32 %174, 0
  br i1 %175, label %176, label %183

176:                                              ; preds = %167
  %177 = load i32, ptr %13, align 4
  %178 = load i32, ptr %11, align 4
  %179 = add i32 %178, %177
  store i32 %179, ptr %11, align 4
  %180 = load i32, ptr %13, align 4
  %181 = load i32, ptr %14, align 4
  %182 = sub i32 %181, %180
  store i32 %182, ptr %14, align 4
  br label %183

183:                                              ; preds = %176, %167
  %184 = load i32, ptr %14, align 4
  %185 = icmp sle i32 %184, 0
  br i1 %185, label %186, label %187

186:                                              ; preds = %183
  store i32 1, ptr %15, align 4
  br label %238

187:                                              ; preds = %183
  %188 = load ptr, ptr %6, align 8
  %189 = load ptr, ptr %7, align 8
  %190 = load ptr, ptr %8, align 8
  %191 = load i32, ptr %11, align 4
  %192 = load i32, ptr %14, align 4
  %193 = call zeroext i16 @elem_tlv(ptr noundef %188, ptr noundef %189, ptr noundef %190, i8 noundef zeroext 55, i32 noundef 10, i32 noundef 68, i32 noundef %191, i32 noundef %192, ptr noundef null)
  %194 = zext i16 %193 to i32
  store i32 %194, ptr %13, align 4
  %195 = icmp ugt i32 %194, 0
  br i1 %195, label %196, label %203

196:                                              ; preds = %187
  %197 = load i32, ptr %13, align 4
  %198 = load i32, ptr %11, align 4
  %199 = add i32 %198, %197
  store i32 %199, ptr %11, align 4
  %200 = load i32, ptr %13, align 4
  %201 = load i32, ptr %14, align 4
  %202 = sub i32 %201, %200
  store i32 %202, ptr %14, align 4
  br label %203

203:                                              ; preds = %196, %187
  %204 = load i32, ptr %14, align 4
  %205 = icmp sle i32 %204, 0
  br i1 %205, label %206, label %207

206:                                              ; preds = %203
  store i32 1, ptr %15, align 4
  br label %238

207:                                              ; preds = %203
  %208 = load ptr, ptr %6, align 8
  %209 = load ptr, ptr %7, align 8
  %210 = load ptr, ptr %8, align 8
  %211 = load i32, ptr %11, align 4
  %212 = call zeroext i16 @elem_tv_short(ptr noundef %208, ptr noundef %209, ptr noundef %210, i8 noundef zeroext -48, i32 noundef 10, i32 noundef 79, i32 noundef %211, ptr noundef @.str.1018)
  %213 = zext i16 %212 to i32
  store i32 %213, ptr %13, align 4
  %214 = icmp ugt i32 %213, 0
  br i1 %214, label %215, label %222

215:                                              ; preds = %207
  %216 = load i32, ptr %13, align 4
  %217 = load i32, ptr %11, align 4
  %218 = add i32 %217, %216
  store i32 %218, ptr %11, align 4
  %219 = load i32, ptr %13, align 4
  %220 = load i32, ptr %14, align 4
  %221 = sub i32 %220, %219
  store i32 %221, ptr %14, align 4
  br label %222

222:                                              ; preds = %215, %207
  %223 = load i32, ptr %14, align 4
  %224 = icmp ugt i32 %223, 0
  br i1 %224, label %225, label %237

225:                                              ; preds = %222
  %226 = load ptr, ptr %7, align 8
  %227 = load ptr, ptr %8, align 8
  %228 = load ptr, ptr %6, align 8
  %229 = load i32, ptr %11, align 4
  %230 = load i32, ptr %14, align 4
  %231 = sub i32 %230, 0
  %232 = call ptr @proto_tree_add_expert(ptr noundef %226, ptr noundef %227, ptr noundef @ei_nas_eps_extraneous_data, ptr noundef %228, i32 noundef %229, i32 noundef %231)
  %233 = load i32, ptr %14, align 4
  %234 = sub i32 %233, 0
  %235 = load i32, ptr %11, align 4
  %236 = add i32 %235, %234
  store i32 %236, ptr %11, align 4
  br label %237

237:                                              ; preds = %225, %222
  store i32 0, ptr %15, align 4
  br label %238

238:                                              ; preds = %237, %206, %186, %166, %146, %127, %108, %89
  call void @llvm.lifetime.end.p0(i64 4, ptr %14) #10
  call void @llvm.lifetime.end.p0(i64 4, ptr %13) #10
  call void @llvm.lifetime.end.p0(i64 4, ptr %12) #10
  call void @llvm.lifetime.end.p0(i64 4, ptr %11) #10
  %239 = load i32, ptr %15, align 4
  switch i32 %239, label %241 [
    i32 0, label %240
    i32 1, label %240
  ]

240:                                              ; preds = %238, %238
  ret void

241:                                              ; preds = %238
  unreachable
}