; Function Attrs: null_pointer_is_valid sspstrong uwtable
define internal void @nas_emm_sec_mode_cmd(ptr noundef %0, ptr noundef %1, ptr noundef initializes((384, 388)) %2, i32 noundef %3, i32 noundef %4) #1 {
  %6 = getelementptr inbounds nuw i8, ptr %2, i64 384
  store i32 1, ptr %6, align 8
  %7 = icmp sgt i32 %4, 0
  br i1 %7, label %8, label %14

8:                                                ; preds = %5
  %9 = tail call zeroext i16 @elem_v(ptr noundef %0, ptr noundef %1, ptr noundef %2, i32 noundef 10, i32 noundef 29, i32 noundef %3, ptr noundef nonnull @.str.1013)
  %.not = icmp eq i16 %9, 0
  br i1 %.not, label %14, label %10

10:                                               ; preds = %8
  %11 = zext i16 %9 to i32
  %12 = add i32 %3, %11
  %13 = sub nsw i32 %4, %11
  br label %17

14:                                               ; preds = %8, %5
  %15 = tail call ptr @get_gsm_a_msg_string(i32 noundef 10, i32 noundef 29)
  %16 = tail call ptr (ptr, ptr, ptr, ptr, i32, i32, ptr, ...) @proto_tree_add_expert_format(ptr noundef %1, ptr noundef %2, ptr noundef nonnull @ei_nas_eps_missing_mandatory_elemen, ptr noundef %0, i32 noundef %3, i32 noundef 0, ptr noundef nonnull @.str.959, ptr noundef %15, ptr noundef nonnull @.str.1013)
  br label %17

17:                                               ; preds = %14, %10
  %.0113 = phi i32 [ %12, %10 ], [ %3, %14 ]
  %.0 = phi i32 [ %13, %10 ], [ %4, %14 ]
  %18 = shl i32 %.0113, 3
  %19 = load i32, ptr @hf_nas_eps_emm_spare_half_octet, align 4
  %20 = tail call ptr @proto_tree_add_bits_item(ptr noundef %1, i32 noundef %19, ptr noundef %0, i32 noundef %18, i32 noundef 4, i32 noundef 0)
  %21 = or disjoint i32 %18, 4
  %22 = load i32, ptr @hf_nas_eps_tsc, align 4
  %23 = tail call ptr @proto_tree_add_bits_item(ptr noundef %1, i32 noundef %22, ptr noundef %0, i32 noundef range(i32 0, -3) %21, i32 noundef 1, i32 noundef 0)
  %24 = or disjoint i32 %18, 5
  %25 = load i32, ptr @hf_nas_eps_emm_nas_key_set_id, align 4
  %26 = tail call ptr @proto_tree_add_bits_item(ptr noundef %1, i32 noundef %25, ptr noundef %0, i32 noundef %24, i32 noundef 3, i32 noundef 0)
  tail call void (ptr, ptr, ...) @proto_item_append_text(ptr noundef %26, ptr noundef nonnull @.str.986, ptr noundef nonnull @.str.1003)
  %27 = add i32 %.0, -1
  %28 = add i32 %.0113, 1
  %29 = icmp sgt i32 %27, 0
  br i1 %29, label %30, label %36

30:                                               ; preds = %17
  %31 = tail call zeroext i16 @elem_lv(ptr noundef %0, ptr noundef %1, ptr noundef %2, i32 noundef 10, i32 noundef 44, i32 noundef %28, i32 noundef %27, ptr noundef nonnull @.str.1014)
  %.not133 = icmp eq i16 %31, 0
  br i1 %.not133, label %36, label %32

32:                                               ; preds = %30
  %33 = zext i16 %31 to i32
  %34 = add i32 %28, %33
  %35 = sub nsw i32 %27, %33
  br label %39

36:                                               ; preds = %30, %17
  %37 = tail call ptr @get_gsm_a_msg_string(i32 noundef 10, i32 noundef 44)
  %38 = tail call ptr (ptr, ptr, ptr, ptr, i32, i32, ptr, ...) @proto_tree_add_expert_format(ptr noundef %1, ptr noundef %2, ptr noundef nonnull @ei_nas_eps_missing_mandatory_elemen, ptr noundef %0, i32 noundef %28, i32 noundef 0, ptr noundef nonnull @.str.959, ptr noundef %37, ptr noundef nonnull @.str.1014)
  br label %39

39:                                               ; preds = %36, %32
  %.1114 = phi i32 [ %34, %32 ], [ %28, %36 ]
  %.1 = phi i32 [ %35, %32 ], [ %27, %36 ]
  %40 = icmp slt i32 %.1, 1
  br i1 %40, label %84, label %41

41:                                               ; preds = %39
  %42 = tail call zeroext i16 @elem_tv_short(ptr noundef %0, ptr noundef %1, ptr noundef %2, i8 noundef zeroext -64, i32 noundef 10, i32 noundef 23, i32 noundef %.1114, ptr noundef null)
  %43 = zext i16 %42 to i32
  %44 = sub nsw i32 %.1, %43
  %45 = icmp slt i32 %44, 1
  br i1 %45, label %84, label %46

46:                                               ; preds = %41
  %47 = add i32 %.1114, %43
  %48 = tail call zeroext i16 @elem_tv(ptr noundef %0, ptr noundef %1, ptr noundef %2, i8 noundef zeroext 85, i32 noundef 10, i32 noundef 31, i32 noundef %47, ptr noundef nonnull @.str.1015)
  %49 = zext i16 %48 to i32
  %50 = sub nsw i32 %44, %49
  %51 = icmp slt i32 %50, 1
  br i1 %51, label %84, label %52

52:                                               ; preds = %46
  %53 = add i32 %47, %49
  %54 = tail call zeroext i16 @elem_tv(ptr noundef %0, ptr noundef %1, ptr noundef %2, i8 noundef zeroext 86, i32 noundef 10, i32 noundef 31, i32 noundef %53, ptr noundef nonnull @.str.1016)
  %55 = zext i16 %54 to i32
  %56 = sub nsw i32 %50, %55
  %57 = icmp slt i32 %56, 1
  br i1 %57, label %84, label %58

58:                                               ; preds = %52
  %59 = add i32 %53, %55
  %60 = tail call zeroext i16 @elem_tlv(ptr noundef %0, ptr noundef %1, ptr noundef %2, i8 noundef zeroext 79, i32 noundef 10, i32 noundef 59, i32 noundef %59, i32 noundef %56, ptr noundef null)
  %61 = zext i16 %60 to i32
  %62 = sub nsw i32 %56, %61
  %63 = icmp slt i32 %62, 1
  br i1 %63, label %84, label %64

64:                                               ; preds = %58
  %65 = add i32 %59, %61
  %66 = tail call zeroext i16 @elem_tlv(ptr noundef %0, ptr noundef %1, ptr noundef %2, i8 noundef zeroext 111, i32 noundef 10, i32 noundef 62, i32 noundef %65, i32 noundef %62, ptr noundef nonnull @.str.1017)
  %67 = zext i16 %66 to i32
  %68 = sub nsw i32 %62, %67
  %69 = icmp slt i32 %68, 1
  br i1 %69, label %84, label %70

70:                                               ; preds = %64
  %71 = add i32 %65, %67
  %72 = tail call zeroext i16 @elem_tlv(ptr noundef %0, ptr noundef %1, ptr noundef %2, i8 noundef zeroext 55, i32 noundef 10, i32 noundef 68, i32 noundef %71, i32 noundef %68, ptr noundef null)
  %73 = zext i16 %72 to i32
  %74 = sub nsw i32 %68, %73
  %75 = icmp slt i32 %74, 1
  br i1 %75, label %84, label %76

76:                                               ; preds = %70
  %77 = add i32 %71, %73
  %78 = tail call zeroext i16 @elem_tv_short(ptr noundef %0, ptr noundef %1, ptr noundef %2, i8 noundef zeroext -48, i32 noundef 10, i32 noundef 79, i32 noundef %77, ptr noundef nonnull @.str.1018)
  %79 = zext i16 %78 to i32
  %.not141 = icmp eq i32 %74, %79
  br i1 %.not141, label %84, label %80

80:                                               ; preds = %76
  %81 = sub nsw i32 %74, %79
  %82 = add i32 %77, %79
  %83 = tail call ptr @proto_tree_add_expert(ptr noundef %1, ptr noundef %2, ptr noundef nonnull @ei_nas_eps_extraneous_data, ptr noundef %0, i32 noundef %82, i32 noundef %81)
  br label %84

84:                                               ; preds = %76, %80, %70, %64, %58, %52, %46, %41, %39
  ret void
}